target datalayout = "e-m:e-p270:32:32-p271:32:32-p272:64:64-i64:64-i128:128-f80:128-n8:16:32:64-S128"
target triple = "x86_64-pc-linux-gnu"

%struct.quic_cid = type { i8, [20 x i8], [16 x i8], i8, i64, i64 }
%struct._packet_info = type { ptr, ptr, i32, i32, %struct.nstime_t, %struct.nstime_t, %struct.nstime_t, i8, ptr, ptr, ptr, ptr, %struct._address, %struct._address, %struct._address, %struct._address, %struct._address, %struct._address, i32, ptr, i8, [3 x i8], %struct.anon, i32, i32, i32, i32, ptr, i8, ptr, ptr, i16, i16, i32, i32, i16, i32, i32, ptr, ptr, ptr, i8, i8, i16, i16, i16, i32, i16, i16, ptr, ptr, ptr, ptr, ptr, i32, i32 }
%struct.nstime_t = type { i64, i32 }
%struct._address = type { i32, i32, ptr, ptr }
%struct.anon = type { i8, [3 x i8] }

@hf_quic_dcid = internal global i32 0, align 4
@hf_quic_scid = internal global i32 0, align 4
@hf_quic_dcil = internal global i32 0, align 4
@hf_quic_scil = internal global i32 0, align 4
@hf_quic_version = internal global i32 0, align 4
@.str.465 = private unnamed_addr constant [31 x i8] c" (Forcing Version Negotiation)\00", align 1
@.str.466 = private unnamed_addr constant [10 x i8] c", DCID=%s\00", align 1
@.str.467 = private unnamed_addr constant [10 x i8] c", SCID=%s\00", align 1
@.str.468 = private unnamed_addr constant [7 x i8] c"(none)\00", align 1

; Function Attrs: null_pointer_is_valid sspstrong uwtable
define internal ptr @cid_to_string(ptr noundef %0, ptr noundef %1) #0 {
  %3 = alloca ptr, align 8
  %4 = alloca ptr, align 8
  %5 = alloca ptr, align 8
  %6 = alloca ptr, align 8
  store ptr %0, ptr %4, align 8
  store ptr %1, ptr %5, align 8
  %7 = load ptr, ptr %5, align 8
  %8 = getelementptr inbounds nuw %struct.quic_cid, ptr %7, i32 0, i32 0
  %9 = load i8, ptr %8, align 8
  %10 = zext i8 %9 to i32
  %11 = icmp eq i32 %10, 0
  br i1 %11, label %12, label %13

12:                                               ; preds = %2
  store ptr @.str.468, ptr %3, align 8
  br label %33

13:                                               ; preds = %2
  call void @llvm.lifetime.start.p0(i64 8, ptr %6) #19
  %14 = load ptr, ptr %4, align 8
  %15 = load ptr, ptr %5, align 8
  %16 = getelementptr inbounds nuw %struct.quic_cid, ptr %15, i32 0, i32 0
  %17 = load i8, ptr %16, align 8
  %18 = zext i8 %17 to i32
  %19 = mul i32 2, %18
  %20 = add i32 %19, 1
  %21 = sext i32 %20 to i64
  %22 = call noalias ptr @wmem_alloc0(ptr noundef %14, i64 noundef %21) #21
  store ptr %22, ptr %6, align 8
  %23 = load ptr, ptr %6, align 8
  %24 = load ptr, ptr %5, align 8
  %25 = getelementptr inbounds nuw %struct.quic_cid, ptr %24, i32 0, i32 1
  %26 = getelementptr inbounds [20 x i8], ptr %25, i64 0, i64 0
  %27 = load ptr, ptr %5, align 8
  %28 = getelementptr inbounds nuw %struct.quic_cid, ptr %27, i32 0, i32 0
  %29 = load i8, ptr %28, align 8
  %30 = zext i8 %29 to i64
  %31 = call ptr @bytes_to_hexstr(ptr noundef %23, ptr noundef %26, i64 noundef %30)
  %32 = load ptr, ptr %6, align 8
  store ptr %32, ptr %3, align 8
  call void @llvm.lifetime.end.p0(i64 8, ptr %6) #19
  br label %33

33:                                               ; preds = %13, %12
  %34 = load ptr, ptr %3, align 8
  ret ptr %34
}

; Function Attrs: null_pointer_is_valid sspstrong uwtable
define internal i32 @dissect_quic_long_header_common(ptr noundef %0, ptr noundef %1, ptr noundef %2, i32 noundef %3, ptr noundef %4, ptr noundef %5, ptr noundef %6) #0 {
  %8 = alloca ptr, align 8
  %9 = alloca ptr, align 8
  %10 = alloca ptr, align 8
  %11 = alloca i32, align 4
  %12 = alloca ptr, align 8
  %13 = alloca ptr, align 8
  %14 = alloca ptr, align 8
  %15 = alloca i32, align 4
  %16 = alloca i32, align 4
  %17 = alloca i32, align 4
  %18 = alloca ptr, align 8
  store ptr %0, ptr %8, align 8
  store ptr %1, ptr %9, align 8
  store ptr %2, ptr %10, align 8
  store i32 %3, ptr %11, align 4
  store ptr %4, ptr %12, align 8
  store ptr %5, ptr %13, align 8
  store ptr %6, ptr %14, align 8
  call void @llvm.lifetime.start.p0(i64 4, ptr %15) #19
  call void @llvm.lifetime.start.p0(i64 4, ptr %16) #19
  call void @llvm.lifetime.start.p0(i64 4, ptr %17) #19
  call void @llvm.lifetime.start.p0(i64 8, ptr %18) #19
  %19 = load ptr, ptr %8, align 8
  %20 = load i32, ptr %11, align 4
  %21 = call i32 @tvb_get_ntohl(ptr noundef %19, i32 noundef %20)
  store i32 %21, ptr %15, align 4
  %22 = load ptr, ptr %10, align 8
  %23 = load i32, ptr @hf_quic_version, align 4
  %24 = load ptr, ptr %8, align 8
  %25 = load i32, ptr %11, align 4
  %26 = call ptr @proto_tree_add_item(ptr noundef %22, i32 noundef %23, ptr noundef %24, i32 noundef %25, i32 noundef 4, i32 noundef 0)
  store ptr %26, ptr %18, align 8
  %27 = load i32, ptr %15, align 4
  %28 = and i32 %27, 252645135
  %29 = icmp eq i32 %28, 168430090
  br i1 %29, label %30, label %32

30:                                               ; preds = %7
  %31 = load ptr, ptr %18, align 8
  call void (ptr, ptr, ...) @proto_item_append_text(ptr noundef %31, ptr noundef @.str.465)
  br label %32

32:                                               ; preds = %30, %7
  %33 = load i32, ptr %11, align 4
  %34 = add i32 %33, 4
  store i32 %34, ptr %11, align 4
  %35 = load ptr, ptr %10, align 8
  %36 = load i32, ptr @hf_quic_dcil, align 4
  %37 = load ptr, ptr %8, align 8
  %38 = load i32, ptr %11, align 4
  %39 = call ptr @proto_tree_add_item_ret_uint(ptr noundef %35, i32 noundef %36, ptr noundef %37, i32 noundef %38, i32 noundef 1, i32 noundef 0, ptr noundef %16)
  %40 = load i32, ptr %11, align 4
  %41 = add i32 %40, 1
  store i32 %41, ptr %11, align 4
  %42 = load i32, ptr %16, align 4
  %43 = icmp ne i32 %42, 0
  br i1 %43, label %44, label %70

44:                                               ; preds = %32
  %45 = load ptr, ptr %10, align 8
  %46 = load i32, ptr @hf_quic_dcid, align 4
  %47 = load ptr, ptr %8, align 8
  %48 = load i32, ptr %11, align 4
  %49 = load i32, ptr %16, align 4
  %50 = call ptr @proto_tree_add_item(ptr noundef %45, i32 noundef %46, ptr noundef %47, i32 noundef %48, i32 noundef %49, i32 noundef 0)
  %51 = load i32, ptr %16, align 4
  %52 = icmp ule i32 %51, 20
  br i1 %52, label %53, label %66

53:                                               ; preds = %44
  %54 = load ptr, ptr %8, align 8
  %55 = load ptr, ptr %13, align 8
  %56 = getelementptr inbounds nuw %struct.quic_cid, ptr %55, i32 0, i32 1
  %57 = getelementptr inbounds [20 x i8], ptr %56, i64 0, i64 0
  %58 = load i32, ptr %11, align 4
  %59 = load i32, ptr %16, align 4
  %60 = zext i32 %59 to i64
  %61 = call ptr @tvb_memcpy(ptr noundef %54, ptr noundef %57, i32 noundef %58, i64 noundef %60)
  %62 = load i32, ptr %16, align 4
  %63 = trunc i32 %62 to i8
  %64 = load ptr, ptr %13, align 8
  %65 = getelementptr inbounds nuw %struct.quic_cid, ptr %64, i32 0, i32 0
  store i8 %63, ptr %65, align 8
  br label %66

66:                                               ; preds = %53, %44
  %67 = load i32, ptr %16, align 4
  %68 = load i32, ptr %11, align 4
  %69 = add i32 %68, %67
  store i32 %69, ptr %11, align 4
  br label %70

70:                                               ; preds = %66, %32
  %71 = load ptr, ptr %10, align 8
  %72 = load i32, ptr @hf_quic_scil, align 4
  %73 = load ptr, ptr %8, align 8
  %74 = load i32, ptr %11, align 4
  %75 = call ptr @proto_tree_add_item_ret_uint(ptr noundef %71, i32 noundef %72, ptr noundef %73, i32 noundef %74, i32 noundef 1, i32 noundef 0, ptr noundef %17)
  %76 = load i32, ptr %11, align 4
  %77 = add i32 %76, 1
  store i32 %77, ptr %11, align 4
  %78 = load i32, ptr %17, align 4
  %79 = icmp ne i32 %78, 0
  br i1 %79, label %80, label %106

80:                                               ; preds = %70
  %81 = load ptr, ptr %10, align 8
  %82 = load i32, ptr @hf_quic_scid, align 4
  %83 = load ptr, ptr %8, align 8
  %84 = load i32, ptr %11, align 4
  %85 = load i32, ptr %17, align 4
  %86 = call ptr @proto_tree_add_item(ptr noundef %81, i32 noundef %82, ptr noundef %83, i32 noundef %84, i32 noundef %85, i32 noundef 0)
  %87 = load i32, ptr %17, align 4
  %88 = icmp ule i32 %87, 20
  br i1 %88, label %89, label %102

89:                                               ; preds = %80
  %90 = load ptr, ptr %8, align 8
  %91 = load ptr, ptr %14, align 8
  %92 = getelementptr inbounds nuw %struct.quic_cid, ptr %91, i32 0, i32 1
  %93 = getelementptr inbounds [20 x i8], ptr %92, i64 0, i64 0
  %94 = load i32, ptr %11, align 4
  %95 = load i32, ptr %17, align 4
  %96 = zext i32 %95 to i64
  %97 = call ptr @tvb_memcpy(ptr noundef %90, ptr noundef %93, i32 noundef %94, i64 noundef %96)
  %98 = load i32, ptr %17, align 4
  %99 = trunc i32 %98 to i8
  %100 = load ptr, ptr %14, align 8
  %101 = getelementptr inbounds nuw %struct.quic_cid, ptr %100, i32 0, i32 0
  store i8 %99, ptr %101, align 8
  br label %102

102:                                              ; preds = %89, %80
  %103 = load i32, ptr %17, align 4
  %104 = load i32, ptr %11, align 4
  %105 = add i32 %104, %103
  store i32 %105, ptr %11, align 4
  br label %106

106:                                              ; preds = %102, %70
  %107 = load ptr, ptr %13, align 8
  %108 = getelementptr inbounds nuw %struct.quic_cid, ptr %107, i32 0, i32 0
  %109 = load i8, ptr %108, align 8
  %110 = zext i8 %109 to i32
  %111 = icmp sgt i32 %110, 0
  br i1 %111, label %112, label %121

112:                                              ; preds = %106
  %113 = load ptr, ptr %9, align 8
  %114 = getelementptr inbounds nuw %struct._packet_info, ptr %113, i32 0, i32 1
  %115 = load ptr, ptr %114, align 8
  %116 = load ptr, ptr %9, align 8
  %117 = getelementptr inbounds nuw %struct._packet_info, ptr %116, i32 0, i32 51
  %118 = load ptr, ptr %117, align 8
  %119 = load ptr, ptr %13, align 8
  %120 = call ptr @cid_to_string(ptr noundef %118, ptr noundef %119)
  call void (ptr, i32, ptr, ...) @col_append_fstr(ptr noundef %115, i32 noundef 25, ptr noundef @.str.466, ptr noundef %120)
  br label %121

121:                                              ; preds = %112, %106
  %122 = load ptr, ptr %14, align 8
  %123 = getelementptr inbounds nuw %struct.quic_cid, ptr %122, i32 0, i32 0
  %124 = load i8, ptr %123, align 8
  %125 = zext i8 %124 to i32
  %126 = icmp sgt i32 %125, 0
  br i1 %126, label %127, label %136

127:                                              ; preds = %121
  %128 = load ptr, ptr %9, align 8
  %129 = getelementptr inbounds nuw %struct._packet_info, ptr %128, i32 0, i32 1
  %130 = load ptr, ptr %129, align 8
  %131 = load ptr, ptr %9, align 8
  %132 = getelementptr inbounds nuw %struct._packet_info, ptr %131, i32 0, i32 51
  %133 = load ptr, ptr %132, align 8
  %134 = load ptr, ptr %14, align 8
  %135 = call ptr @cid_to_string(ptr noundef %133, ptr noundef %134)
  call void (ptr, i32, ptr, ...) @col_append_fstr(ptr noundef %130, i32 noundef 25, ptr noundef @.str.467, ptr noundef %135)
  br label %136

136:                                              ; preds = %127, %121
  %137 = load i32, ptr %11, align 4
  call void @llvm.lifetime.end.p0(i64 8, ptr %18) #19
  call void @llvm.lifetime.end.p0(i64 4, ptr %17) #19
  call void @llvm.lifetime.end.p0(i64 4, ptr %16) #19
  call void @llvm.lifetime.end.p0(i64 4, ptr %15) #19
  ret i32 %137
}