; Function Attrs: null_pointer_is_valid sspstrong uwtable
define internal fastcc i32 @dissect_quic_long_header_common(ptr noundef %0, ptr noundef readonly captures(none) %1, ptr noundef %2, ptr noundef %3, ptr noundef %4) unnamed_addr #0 {
  %6 = alloca i32, align 4
  %7 = alloca i32, align 4
  call void @llvm.lifetime.start.p0(i64 4, ptr nonnull %6) #18
  call void @llvm.lifetime.start.p0(i64 4, ptr nonnull %7) #18
  %8 = tail call i32 @tvb_get_ntohl(ptr noundef %0, i32 noundef 1)
  %9 = load i32, ptr @hf_quic_version, align 4
  %10 = tail call ptr @proto_tree_add_item(ptr noundef %2, i32 noundef %9, ptr noundef %0, i32 noundef 1, i32 noundef 4, i32 noundef 0)
  %11 = and i32 %8, 252645135
  %12 = icmp eq i32 %11, 168430090
  br i1 %12, label %13, label %14

13:                                               ; preds = %5
  tail call void (ptr, ptr, ...) @proto_item_append_text(ptr noundef %10, ptr noundef nonnull @.str.465)
  br label %14

14:                                               ; preds = %13, %5
  %15 = load i32, ptr @hf_quic_dcil, align 4
  %16 = call ptr @proto_tree_add_item_ret_uint(ptr noundef %2, i32 noundef %15, ptr noundef %0, i32 noundef 5, i32 noundef 1, i32 noundef 0, ptr noundef nonnull %6)
  %17 = load i32, ptr %6, align 4
  %.not = icmp eq i32 %17, 0
  br i1 %.not, label %32, label %18

18:                                               ; preds = %14
  %19 = load i32, ptr @hf_quic_dcid, align 4
  %20 = call ptr @proto_tree_add_item(ptr noundef %2, i32 noundef %19, ptr noundef %0, i32 noundef 6, i32 noundef %17, i32 noundef 0)
  %21 = load i32, ptr %6, align 4
  %22 = icmp ult i32 %21, 21
  br i1 %22, label %23, label %29

23:                                               ; preds = %18
  %24 = getelementptr inbounds nuw i8, ptr %3, i64 1
  %25 = zext nneg i32 %21 to i64
  %26 = call ptr @tvb_memcpy(ptr noundef %0, ptr noundef nonnull %24, i32 noundef 6, i64 noundef %25)
  %27 = load i32, ptr %6, align 4
  %28 = trunc i32 %27 to i8
  store i8 %28, ptr %3, align 8
  br label %29

29:                                               ; preds = %23, %18
  %30 = phi i32 [ %27, %23 ], [ %21, %18 ]
  %31 = add i32 %30, 6
  br label %32

32:                                               ; preds = %29, %14
  %.0 = phi i32 [ %31, %29 ], [ 6, %14 ]
  %33 = load i32, ptr @hf_quic_scil, align 4
  %34 = call ptr @proto_tree_add_item_ret_uint(ptr noundef %2, i32 noundef %33, ptr noundef %0, i32 noundef %.0, i32 noundef 1, i32 noundef 0, ptr noundef nonnull %7)
  %35 = add i32 %.0, 1
  %36 = load i32, ptr %7, align 4
  %.not44 = icmp eq i32 %36, 0
  br i1 %.not44, label %51, label %37

37:                                               ; preds = %32
  %38 = load i32, ptr @hf_quic_scid, align 4
  %39 = call ptr @proto_tree_add_item(ptr noundef %2, i32 noundef %38, ptr noundef %0, i32 noundef %35, i32 noundef %36, i32 noundef 0)
  %40 = load i32, ptr %7, align 4
  %41 = icmp ult i32 %40, 21
  br i1 %41, label %42, label %48

42:                                               ; preds = %37
  %43 = getelementptr inbounds nuw i8, ptr %4, i64 1
  %44 = zext nneg i32 %40 to i64
  %45 = call ptr @tvb_memcpy(ptr noundef %0, ptr noundef nonnull %43, i32 noundef %35, i64 noundef %44)
  %46 = load i32, ptr %7, align 4
  %47 = trunc i32 %46 to i8
  store i8 %47, ptr %4, align 8
  br label %48

48:                                               ; preds = %42, %37
  %49 = phi i32 [ %46, %42 ], [ %40, %37 ]
  %50 = add i32 %49, %35
  br label %51

51:                                               ; preds = %48, %32
  %.1 = phi i32 [ %50, %48 ], [ %35, %32 ]
  %52 = load i8, ptr %3, align 8
  %.not45 = icmp eq i8 %52, 0
  br i1 %.not45, label %65, label %cid_to_string.exit

cid_to_string.exit:                               ; preds = %51
  %53 = getelementptr inbounds nuw i8, ptr %1, i64 8
  %54 = load ptr, ptr %53, align 8
  %55 = getelementptr inbounds nuw i8, ptr %1, i64 408
  %56 = load ptr, ptr %55, align 8
  %57 = zext i8 %52 to i64
  %58 = shl nuw nsw i64 %57, 1
  %59 = or disjoint i64 %58, 1
  %60 = call noalias ptr @wmem_alloc0(ptr noundef %56, i64 noundef %59) #17
  %61 = getelementptr inbounds nuw i8, ptr %3, i64 1
  %62 = load i8, ptr %3, align 8
  %63 = zext i8 %62 to i64
  %64 = call ptr @bytes_to_hexstr(ptr noundef %60, ptr noundef nonnull %61, i64 noundef %63)
  call void (ptr, i32, ptr, ...) @col_append_fstr(ptr noundef %54, i32 noundef 25, ptr noundef nonnull @.str.466, ptr noundef %60)
  br label %65

65:                                               ; preds = %cid_to_string.exit, %51
  %66 = load i8, ptr %4, align 8
  %.not46 = icmp eq i8 %66, 0
  br i1 %.not46, label %79, label %cid_to_string.exit48

cid_to_string.exit48:                             ; preds = %65
  %67 = getelementptr inbounds nuw i8, ptr %1, i64 8
  %68 = load ptr, ptr %67, align 8
  %69 = getelementptr inbounds nuw i8, ptr %1, i64 408
  %70 = load ptr, ptr %69, align 8
  %71 = zext i8 %66 to i64
  %72 = shl nuw nsw i64 %71, 1
  %73 = or disjoint i64 %72, 1
  %74 = call noalias ptr @wmem_alloc0(ptr noundef %70, i64 noundef %73) #17
  %75 = getelementptr inbounds nuw i8, ptr %4, i64 1
  %76 = load i8, ptr %4, align 8
  %77 = zext i8 %76 to i64
  %78 = call ptr @bytes_to_hexstr(ptr noundef %74, ptr noundef nonnull %75, i64 noundef %77)
  call void (ptr, i32, ptr, ...) @col_append_fstr(ptr noundef %68, i32 noundef 25, ptr noundef nonnull @.str.467, ptr noundef %74)
  br label %79

79:                                               ; preds = %cid_to_string.exit48, %65
  call void @llvm.lifetime.end.p0(i64 4, ptr nonnull %7) #18
  call void @llvm.lifetime.end.p0(i64 4, ptr nonnull %6) #18
  ret i32 %.1
}